target datalayout = "e-m:e-p270:32:32-p271:32:32-p272:64:64-i64:64-i128:128-f80:128-n8:16:32:64-S128"
target triple = "x86_64-pc-linux-gnu"

%struct._zend_array = type { %struct._zend_refcounted_h, %union.anon.0, i32, %union.anon.1, i32, i32, i32, i32, i64, ptr }
%struct._zend_refcounted_h = type { i32, %union.anon }
%union.anon = type { i32 }
%union.anon.0 = type { i32 }
%union.anon.1 = type { ptr }
%struct._zend_executor_globals = type { %struct._zval_struct, %struct._zval_struct, [32 x ptr], ptr, ptr, %struct._zend_array, %struct._zend_array, ptr, i32, i32, ptr, ptr, ptr, ptr, ptr, ptr, i64, ptr, ptr, i32, i32, i64, i32, i32, i32, i8, i8, %struct.zend_atomic_bool_s, %struct.zend_atomic_bool_s, ptr, i64, ptr, ptr, %struct._zend_array, %struct._zend_array, i32, i8, %struct._zval_struct, %struct._zval_struct, %struct._zend_stack, %struct._zend_stack, %struct._zend_stack, ptr, i32, i32, i64, ptr, ptr, ptr, %struct._zend_objects_store, ptr, ptr, ptr, [3 x %struct._zend_op], ptr, i8, i8, i64, i32, i32, ptr, [16 x %struct._HashTableIterator], ptr, %union._zend_function, %struct._zend_op, %struct._zend_array, i64, %struct.zend_get_gc_buffer, ptr, ptr, ptr, i64, i8, i32, ptr, ptr, i64, %struct._zend_call_stack, i64, i64, [6 x ptr] }
%struct.zend_atomic_bool_s = type { i8 }
%struct._zval_struct = type { %union._zend_value, %union.anon.3, %union.anon.6 }
%union._zend_value = type { i64 }
%union.anon.3 = type { i32 }
%union.anon.6 = type { i32 }
%struct._zend_stack = type { i32, i32, i32, ptr }
%struct._zend_objects_store = type { ptr, i32, i32, i32 }
%struct._HashTableIterator = type { ptr, i32, i32 }
%union._zend_function = type { %struct._zend_op_array }
%struct._zend_op_array = type { i8, [3 x i8], i32, ptr, ptr, ptr, i32, i32, ptr, ptr, ptr, ptr, i32, i32, i32, i32, ptr, ptr, ptr, ptr, ptr, i32, i32, ptr, ptr, ptr, i32, i32, i32, i32, ptr, ptr, [6 x ptr] }
%struct._zend_op = type { ptr, %union._znode_op, %union._znode_op, %union._znode_op, i32, i32, i8, i8, i8, i8 }
%union._znode_op = type { i32 }
%struct.zend_get_gc_buffer = type { ptr, ptr, ptr }
%struct._zend_call_stack = type { ptr, i64 }
%struct.anon = type { i8, i8, i8, i8 }

@executor_globals = external global %struct._zend_executor_globals, align 8

; Function Attrs: nounwind uwtable
define void @zend_hash_iterator_del(i32 noundef %0) #0 {
  %2 = alloca i32, align 4
  %3 = alloca ptr, align 8
  store i32 %0, ptr %2, align 4
  %4 = load ptr, ptr getelementptr inbounds (%struct._zend_executor_globals, ptr @executor_globals, i32 0, i32 60), align 8
  %5 = load i32, ptr %2, align 4
  %6 = zext i32 %5 to i64
  %7 = getelementptr inbounds %struct._HashTableIterator, ptr %4, i64 %6
  store ptr %7, ptr %3, align 8
  %8 = load i32, ptr %2, align 4
  %9 = icmp ne i32 %8, -1
  call void @llvm.assume(i1 %9)
  %10 = load ptr, ptr %3, align 8
  %11 = getelementptr inbounds %struct._HashTableIterator, ptr %10, i32 0, i32 0
  %12 = load ptr, ptr %11, align 8
  %13 = icmp ne ptr %12, null
  %14 = xor i1 %13, true
  %15 = xor i1 %14, true
  %16 = zext i1 %15 to i32
  %17 = sext i32 %16 to i64
  %18 = icmp ne i64 %17, 0
  br i1 %18, label %19, label %69

19:                                               ; preds = %1
  %20 = load ptr, ptr %3, align 8
  %21 = getelementptr inbounds %struct._HashTableIterator, ptr %20, i32 0, i32 0
  %22 = load ptr, ptr %21, align 8
  %23 = icmp ne ptr %22, inttoptr (i64 -1 to ptr)
  %24 = xor i1 %23, true
  %25 = xor i1 %24, true
  %26 = zext i1 %25 to i32
  %27 = sext i32 %26 to i64
  %28 = icmp ne i64 %27, 0
  br i1 %28, label %29, label %69

29:                                               ; preds = %19
  %30 = load ptr, ptr %3, align 8
  %31 = getelementptr inbounds %struct._HashTableIterator, ptr %30, i32 0, i32 0
  %32 = load ptr, ptr %31, align 8
  %33 = getelementptr inbounds %struct._zend_array, ptr %32, i32 0, i32 1
  %34 = getelementptr inbounds %struct.anon, ptr %33, i32 0, i32 2
  %35 = load i8, ptr %34, align 2
  %36 = zext i8 %35 to i32
  %37 = icmp eq i32 %36, 255
  %38 = xor i1 %37, true
  %39 = xor i1 %38, true
  %40 = xor i1 %39, true
  %41 = zext i1 %40 to i32
  %42 = sext i32 %41 to i64
  %43 = icmp ne i64 %42, 0
  br i1 %43, label %44, label %69

44:                                               ; preds = %29
  %45 = load ptr, ptr %3, align 8
  %46 = getelementptr inbounds %struct._HashTableIterator, ptr %45, i32 0, i32 0
  %47 = load ptr, ptr %46, align 8
  %48 = getelementptr inbounds %struct._zend_array, ptr %47, i32 0, i32 1
  %49 = getelementptr inbounds %struct.anon, ptr %48, i32 0, i32 2
  %50 = load i8, ptr %49, align 2
  %51 = zext i8 %50 to i32
  %52 = icmp ne i32 %51, 0
  call void @llvm.assume(i1 %52)
  br label %53

53:                                               ; preds = %44
  %54 = load ptr, ptr %3, align 8
  %55 = getelementptr inbounds %struct._HashTableIterator, ptr %54, i32 0, i32 0
  %56 = load ptr, ptr %55, align 8
  %57 = getelementptr inbounds %struct._zend_array, ptr %56, i32 0, i32 1
  %58 = getelementptr inbounds %struct.anon, ptr %57, i32 0, i32 2
  %59 = load i8, ptr %58, align 2
  %60 = zext i8 %59 to i32
  %61 = sub nsw i32 %60, 1
  %62 = trunc i32 %61 to i8
  %63 = load ptr, ptr %3, align 8
  %64 = getelementptr inbounds %struct._HashTableIterator, ptr %63, i32 0, i32 0
  %65 = load ptr, ptr %64, align 8
  %66 = getelementptr inbounds %struct._zend_array, ptr %65, i32 0, i32 1
  %67 = getelementptr inbounds %struct.anon, ptr %66, i32 0, i32 2
  store i8 %62, ptr %67, align 2
  br label %68

68:                                               ; preds = %53
  br label %69

69:                                               ; preds = %68, %29, %19, %1
  %70 = load ptr, ptr %3, align 8
  %71 = getelementptr inbounds %struct._HashTableIterator, ptr %70, i32 0, i32 0
  store ptr null, ptr %71, align 8
  %72 = load ptr, ptr %3, align 8
  %73 = getelementptr inbounds %struct._HashTableIterator, ptr %72, i32 0, i32 2
  %74 = load i32, ptr %73, align 4
  %75 = load i32, ptr %2, align 4
  %76 = icmp ne i32 %74, %75
  %77 = xor i1 %76, true
  %78 = xor i1 %77, true
  %79 = zext i1 %78 to i32
  %80 = sext i32 %79 to i64
  %81 = icmp ne i64 %80, 0
  br i1 %81, label %82, label %84

82:                                               ; preds = %69
  %83 = load i32, ptr %2, align 4
  call void @zend_hash_remove_iterator_copies(i32 noundef %83)
  br label %84

84:                                               ; preds = %82, %69
  %85 = load i32, ptr %2, align 4
  %86 = load i32, ptr getelementptr inbounds (%struct._zend_executor_globals, ptr @executor_globals, i32 0, i32 59), align 4
  %87 = sub i32 %86, 1
  %88 = icmp eq i32 %85, %87
  br i1 %88, label %89, label %109

89:                                               ; preds = %84
  br label %90

90:                                               ; preds = %104, %89
  %91 = load i32, ptr %2, align 4
  %92 = icmp ugt i32 %91, 0
  br i1 %92, label %93, label %102

93:                                               ; preds = %90
  %94 = load ptr, ptr getelementptr inbounds (%struct._zend_executor_globals, ptr @executor_globals, i32 0, i32 60), align 8
  %95 = load i32, ptr %2, align 4
  %96 = sub i32 %95, 1
  %97 = zext i32 %96 to i64
  %98 = getelementptr inbounds %struct._HashTableIterator, ptr %94, i64 %97
  %99 = getelementptr inbounds %struct._HashTableIterator, ptr %98, i32 0, i32 0
  %100 = load ptr, ptr %99, align 8
  %101 = icmp eq ptr %100, null
  br label %102

102:                                              ; preds = %93, %90
  %103 = phi i1 [ false, %90 ], [ %101, %93 ]
  br i1 %103, label %104, label %107

104:                                              ; preds = %102
  %105 = load i32, ptr %2, align 4
  %106 = add i32 %105, -1
  store i32 %106, ptr %2, align 4
  br label %90

107:                                              ; preds = %102
  %108 = load i32, ptr %2, align 4
  store i32 %108, ptr getelementptr inbounds (%struct._zend_executor_globals, ptr @executor_globals, i32 0, i32 59), align 4
  br label %109

109:                                              ; preds = %107, %84
  ret void
}

; Function Attrs: nounwind uwtable
define internal void @zend_hash_remove_iterator_copies(i32 noundef %0) #0 {
  %2 = alloca i32, align 4
  %3 = alloca ptr, align 8
  %4 = alloca ptr, align 8
  %5 = alloca i32, align 4
  %6 = alloca i32, align 4
  %7 = alloca ptr, align 8
  store i32 %0, ptr %2, align 4
  %8 = load ptr, ptr getelementptr inbounds (%struct._zend_executor_globals, ptr @executor_globals, i32 0, i32 60), align 8
  store ptr %8, ptr %3, align 8
  %9 = load ptr, ptr %3, align 8
  %10 = load i32, ptr %2, align 4
  %11 = zext i32 %10 to i64
  %12 = getelementptr inbounds %struct._HashTableIterator, ptr %9, i64 %11
  store ptr %12, ptr %4, align 8
  %13 = load ptr, ptr %4, align 8
  %14 = getelementptr inbounds %struct._HashTableIterator, ptr %13, i32 0, i32 2
  %15 = load i32, ptr %14, align 4
  store i32 %15, ptr %5, align 4
  br label %16

16:                                               ; preds = %20, %1
  %17 = load i32, ptr %5, align 4
  %18 = load i32, ptr %2, align 4
  %19 = icmp ne i32 %17, %18
  br i1 %19, label %20, label %33

20:                                               ; preds = %16
  %21 = load i32, ptr %5, align 4
  store i32 %21, ptr %6, align 4
  %22 = load ptr, ptr %3, align 8
  %23 = load i32, ptr %6, align 4
  %24 = zext i32 %23 to i64
  %25 = getelementptr inbounds %struct._HashTableIterator, ptr %22, i64 %24
  store ptr %25, ptr %7, align 8
  %26 = load ptr, ptr %7, align 8
  %27 = getelementptr inbounds %struct._HashTableIterator, ptr %26, i32 0, i32 2
  %28 = load i32, ptr %27, align 4
  store i32 %28, ptr %5, align 4
  %29 = load i32, ptr %6, align 4
  %30 = load ptr, ptr %7, align 8
  %31 = getelementptr inbounds %struct._HashTableIterator, ptr %30, i32 0, i32 2
  store i32 %29, ptr %31, align 4
  %32 = load i32, ptr %6, align 4
  call void @zend_hash_iterator_del(i32 noundef %32)
  br label %16

33:                                               ; preds = %16
  %34 = load i32, ptr %2, align 4
  %35 = load ptr, ptr %4, align 8
  %36 = getelementptr inbounds %struct._HashTableIterator, ptr %35, i32 0, i32 2
  store i32 %34, ptr %36, align 4
  ret void
}