; Function Attrs: nofree nosync nounwind memory(readwrite, inaccessiblemem: write) uwtable
define internal fastcc void @zend_hash_remove_iterator_copies(i32 noundef %0) unnamed_addr #14 {
  %2 = load ptr, ptr getelementptr inbounds (%struct._zend_executor_globals, ptr @executor_globals, i64 0, i32 60), align 8
  %3 = zext i32 %0 to i64
  %4 = getelementptr inbounds %struct._HashTableIterator, ptr %2, i64 %3, i32 2
  %5 = load i32, ptr %4, align 4
  %.not14 = icmp eq i32 %5, %0
  br i1 %.not14, label %._crit_edge, label %.lr.ph

.lr.ph:                                           ; preds = %1, %zend_hash_iterator_del.exit
  %.015 = phi i32 [ %8, %zend_hash_iterator_del.exit ], [ %5, %1 ]
  %6 = zext i32 %.015 to i64
  %7 = getelementptr inbounds %struct._HashTableIterator, ptr %2, i64 %6, i32 2
  %8 = load i32, ptr %7, align 4
  store i32 %.015, ptr %7, align 4
  %9 = load ptr, ptr getelementptr inbounds (%struct._zend_executor_globals, ptr @executor_globals, i64 0, i32 60), align 8
  %10 = getelementptr inbounds %struct._HashTableIterator, ptr %9, i64 %6
  %11 = icmp ne i32 %.015, -1
  tail call void @llvm.assume(i1 %11)
  %12 = load ptr, ptr %10, align 8
  %magicptr.i = ptrtoint ptr %12 to i64
  switch i64 %magicptr.i, label %13 [
    i64 0, label %19
    i64 -1, label %19
  ]

13:                                               ; preds = %.lr.ph
  %14 = getelementptr inbounds i8, ptr %12, i64 10
  %15 = load i8, ptr %14, align 2
  %.not19.i = icmp eq i8 %15, -1
  br i1 %.not19.i, label %19, label %16

16:                                               ; preds = %13
  %17 = icmp ne i8 %15, 0
  tail call void @llvm.assume(i1 %17)
  %18 = add i8 %15, -1
  store i8 %18, ptr %14, align 2
  br label %19

19:                                               ; preds = %16, %13, %.lr.ph, %.lr.ph
  store ptr null, ptr %10, align 8
  %20 = getelementptr inbounds i8, ptr %10, i64 12
  %21 = load i32, ptr %20, align 4
  %.not20.i = icmp eq i32 %21, %.015
  br i1 %.not20.i, label %23, label %22

22:                                               ; preds = %19
  tail call fastcc void @zend_hash_remove_iterator_copies(i32 noundef %.015)
  br label %23

23:                                               ; preds = %22, %19
  %24 = load i32, ptr getelementptr inbounds (%struct._zend_executor_globals, ptr @executor_globals, i64 0, i32 59), align 4
  %25 = add i32 %24, -1
  %26 = icmp eq i32 %25, %.015
  br i1 %26, label %.preheader, label %zend_hash_iterator_del.exit

.preheader:                                       ; preds = %23
  %27 = load ptr, ptr getelementptr inbounds (%struct._zend_executor_globals, ptr @executor_globals, i64 0, i32 60), align 8
  br label %28

28:                                               ; preds = %.preheader, %29
  %indvars.iv = phi i64 [ %6, %.preheader ], [ %30, %29 ]
  %.not21.i = icmp eq i64 %indvars.iv, 0
  br i1 %.not21.i, label %.critedge.i, label %29

29:                                               ; preds = %28
  %30 = add nsw i64 %indvars.iv, -1
  %31 = getelementptr inbounds %struct._HashTableIterator, ptr %27, i64 %30
  %32 = load ptr, ptr %31, align 8
  %33 = icmp eq ptr %32, null
  br i1 %33, label %28, label %.critedge.i.split.loop.exit

.critedge.i.split.loop.exit:                      ; preds = %29
  %34 = trunc i64 %indvars.iv to i32
  br label %.critedge.i

.critedge.i:                                      ; preds = %28, %.critedge.i.split.loop.exit
  %.0.i.lcssa = phi i32 [ %34, %.critedge.i.split.loop.exit ], [ 0, %28 ]
  store i32 %.0.i.lcssa, ptr getelementptr inbounds (%struct._zend_executor_globals, ptr @executor_globals, i64 0, i32 59), align 4
  br label %zend_hash_iterator_del.exit

zend_hash_iterator_del.exit:                      ; preds = %23, %.critedge.i
  %.not = icmp eq i32 %8, %0
  br i1 %.not, label %._crit_edge, label %.lr.ph

._crit_edge:                                      ; preds = %zend_hash_iterator_del.exit, %1
  store i32 %0, ptr %4, align 4
  ret void
}